; Function Attrs: nounwind uwtable
define internal fastcc void @_jumbleCreatePolicyStmt(ptr noundef %0, ptr noundef nonnull readonly captures(none) %1) unnamed_addr #0 {
  %3 = getelementptr inbounds nuw i8, ptr %1, i64 8
  %4 = load ptr, ptr %3, align 8
  %.not = icmp eq ptr %4, null
  br i1 %.not, label %21, label %5

5:                                                ; preds = %2
  %6 = tail call i64 @strlen(ptr noundef nonnull dereferenceable(1) %4) #8
  %7 = add i64 %6, 1
  %8 = load ptr, ptr %0, align 8
  %9 = getelementptr inbounds nuw i8, ptr %0, i64 8
  %10 = load i64, ptr %9, align 8
  %.not23.i = icmp eq i64 %7, 0
  br i1 %.not23.i, label %AppendJumble.exit, label %.lr.ph.i

.lr.ph.i:                                         ; preds = %5, %14
  %.026.i = phi ptr [ %19, %14 ], [ %4, %5 ]
  %.02125.i = phi i64 [ %20, %14 ], [ %7, %5 ]
  %.02224.i = phi i64 [ %18, %14 ], [ %10, %5 ]
  %11 = icmp ugt i64 %.02224.i, 1023
  br i1 %11, label %12, label %14

12:                                               ; preds = %.lr.ph.i
  %13 = tail call i64 @hash_bytes_extended(ptr noundef %8, i32 noundef 1024, i64 noundef 0) #9
  store i64 %13, ptr %8, align 1
  br label %14

14:                                               ; preds = %12, %.lr.ph.i
  %.1.i = phi i64 [ 8, %12 ], [ %.02224.i, %.lr.ph.i ]
  %15 = sub nuw nsw i64 1024, %.1.i
  %16 = tail call i64 @llvm.umin.i64(i64 %.02125.i, i64 %15)
  %17 = getelementptr inbounds nuw i8, ptr %8, i64 %.1.i
  tail call void @llvm.memcpy.p0.p0.i64(ptr noundef nonnull align 1 dereferenceable(1) %17, ptr noundef nonnull align 1 dereferenceable(1) %.026.i, i64 %16, i1 false)
  %18 = add nuw nsw i64 %16, %.1.i
  %19 = getelementptr inbounds nuw i8, ptr %.026.i, i64 %16
  %20 = sub i64 %.02125.i, %16
  %.not.i = icmp eq i64 %20, 0
  br i1 %.not.i, label %AppendJumble.exit, label %.lr.ph.i, !llvm.loop !7

AppendJumble.exit:                                ; preds = %14, %5
  %.022.lcssa.i = phi i64 [ %10, %5 ], [ %18, %14 ]
  store i64 %.022.lcssa.i, ptr %9, align 8
  br label %21

21:                                               ; preds = %AppendJumble.exit, %2
  %22 = getelementptr inbounds nuw i8, ptr %1, i64 16
  %23 = load ptr, ptr %22, align 8
  tail call fastcc void @_jumbleNode(ptr noundef %0, ptr noundef %23)
  %24 = getelementptr inbounds nuw i8, ptr %1, i64 24
  %25 = load ptr, ptr %24, align 8
  %.not20 = icmp eq ptr %25, null
  %.pre42 = load ptr, ptr %0, align 8
  br i1 %.not20, label %._crit_edge, label %26

._crit_edge:                                      ; preds = %21
  %.phi.trans.insert = getelementptr inbounds nuw i8, ptr %0, i64 8
  %.pre43 = load i64, ptr %.phi.trans.insert, align 8
  br label %41

26:                                               ; preds = %21
  %27 = tail call i64 @strlen(ptr noundef nonnull dereferenceable(1) %25) #8
  %28 = add i64 %27, 1
  %29 = getelementptr inbounds nuw i8, ptr %0, i64 8
  %30 = load i64, ptr %29, align 8
  %.not23.i21 = icmp eq i64 %28, 0
  br i1 %.not23.i21, label %AppendJumble.exit29, label %.lr.ph.i22

.lr.ph.i22:                                       ; preds = %26, %34
  %.026.i23 = phi ptr [ %39, %34 ], [ %25, %26 ]
  %.02125.i24 = phi i64 [ %40, %34 ], [ %28, %26 ]
  %.02224.i25 = phi i64 [ %38, %34 ], [ %30, %26 ]
  %31 = icmp ugt i64 %.02224.i25, 1023
  br i1 %31, label %32, label %34

32:                                               ; preds = %.lr.ph.i22
  %33 = tail call i64 @hash_bytes_extended(ptr noundef %.pre42, i32 noundef 1024, i64 noundef 0) #9
  store i64 %33, ptr %.pre42, align 1
  br label %34

34:                                               ; preds = %32, %.lr.ph.i22
  %.1.i26 = phi i64 [ 8, %32 ], [ %.02224.i25, %.lr.ph.i22 ]
  %35 = sub nuw nsw i64 1024, %.1.i26
  %36 = tail call i64 @llvm.umin.i64(i64 %.02125.i24, i64 %35)
  %37 = getelementptr inbounds nuw i8, ptr %.pre42, i64 %.1.i26
  tail call void @llvm.memcpy.p0.p0.i64(ptr noundef nonnull align 1 dereferenceable(1) %37, ptr noundef nonnull align 1 dereferenceable(1) %.026.i23, i64 %36, i1 false)
  %38 = add nuw nsw i64 %36, %.1.i26
  %39 = getelementptr inbounds nuw i8, ptr %.026.i23, i64 %36
  %40 = sub i64 %.02125.i24, %36
  %.not.i27 = icmp eq i64 %40, 0
  br i1 %.not.i27, label %AppendJumble.exit29.loopexit, label %.lr.ph.i22, !llvm.loop !7

AppendJumble.exit29.loopexit:                     ; preds = %34
  %.pre.pre = load ptr, ptr %0, align 8
  br label %AppendJumble.exit29

AppendJumble.exit29:                              ; preds = %AppendJumble.exit29.loopexit, %26
  %.pre = phi ptr [ %.pre42, %26 ], [ %.pre.pre, %AppendJumble.exit29.loopexit ]
  %.022.lcssa.i28 = phi i64 [ %30, %26 ], [ %38, %AppendJumble.exit29.loopexit ]
  store i64 %.022.lcssa.i28, ptr %29, align 8
  br label %41

41:                                               ; preds = %._crit_edge, %AppendJumble.exit29
  %42 = phi i64 [ %.022.lcssa.i28, %AppendJumble.exit29 ], [ %.pre43, %._crit_edge ]
  %43 = phi ptr [ %.pre, %AppendJumble.exit29 ], [ %.pre42, %._crit_edge ]
  %44 = getelementptr inbounds nuw i8, ptr %1, i64 32
  br label %.lr.ph.i30

.lr.ph.i30:                                       ; preds = %48, %41
  %.026.i31 = phi ptr [ %53, %48 ], [ %44, %41 ]
  %.02125.i32 = phi i64 [ %54, %48 ], [ 1, %41 ]
  %.02224.i33 = phi i64 [ %52, %48 ], [ %42, %41 ]
  %45 = icmp ugt i64 %.02224.i33, 1023
  br i1 %45, label %46, label %48

46:                                               ; preds = %.lr.ph.i30
  %47 = tail call i64 @hash_bytes_extended(ptr noundef %43, i32 noundef 1024, i64 noundef 0) #9
  store i64 %47, ptr %43, align 1
  br label %48

48:                                               ; preds = %46, %.lr.ph.i30
  %.1.i34 = phi i64 [ 8, %46 ], [ %.02224.i33, %.lr.ph.i30 ]
  %49 = sub nuw nsw i64 1024, %.1.i34
  %50 = tail call i64 @llvm.umin.i64(i64 %.02125.i32, i64 %49)
  %51 = getelementptr inbounds nuw i8, ptr %43, i64 %.1.i34
  tail call void @llvm.memcpy.p0.p0.i64(ptr noundef nonnull align 1 dereferenceable(1) %51, ptr noundef nonnull align 1 dereferenceable(1) %.026.i31, i64 %50, i1 false)
  %52 = add nuw nsw i64 %50, %.1.i34
  %53 = getelementptr inbounds nuw i8, ptr %.026.i31, i64 %50
  %54 = sub i64 %.02125.i32, %50
  %.not.i35 = icmp eq i64 %54, 0
  br i1 %.not.i35, label %AppendJumble.exit37, label %.lr.ph.i30, !llvm.loop !7

AppendJumble.exit37:                              ; preds = %48
  %55 = getelementptr inbounds nuw i8, ptr %0, i64 8
  store i64 %52, ptr %55, align 8
  %56 = getelementptr inbounds nuw i8, ptr %1, i64 40
  %57 = load ptr, ptr %56, align 8
  tail call fastcc void @_jumbleNode(ptr noundef nonnull %0, ptr noundef %57)
  %58 = getelementptr inbounds nuw i8, ptr %1, i64 48
  %59 = load ptr, ptr %58, align 8
  tail call fastcc void @_jumbleNode(ptr noundef nonnull %0, ptr noundef %59)
  %60 = getelementptr inbounds nuw i8, ptr %1, i64 56
  %61 = load ptr, ptr %60, align 8
  tail call fastcc void @_jumbleNode(ptr noundef nonnull %0, ptr noundef %61)
  ret void
}